
motor_control.elf:     file format elf32-avr

Sections:
Idx Name          Size      VMA       LMA       File off  Algn
  0 .data         00000000  00800100  00800100  00000216  2**0
                  CONTENTS, ALLOC, LOAD, DATA
  1 .text         000001c2  00000000  00000000  00000054  2**1
                  CONTENTS, ALLOC, LOAD, READONLY, CODE
  2 .comment      00000030  00000000  00000000  00000216  2**0
                  CONTENTS, READONLY
  3 .note.gnu.avr.deviceinfo 00000040  00000000  00000000  00000248  2**2
                  CONTENTS, READONLY
  4 .debug_aranges 000000a0  00000000  00000000  00000288  2**0
                  CONTENTS, READONLY, DEBUGGING
  5 .debug_info   000003c4  00000000  00000000  00000328  2**0
                  CONTENTS, READONLY, DEBUGGING
  6 .debug_abbrev 0000027a  00000000  00000000  000006ec  2**0
                  CONTENTS, READONLY, DEBUGGING
  7 .debug_line   000003f4  00000000  00000000  00000966  2**0
                  CONTENTS, READONLY, DEBUGGING
  8 .debug_frame  000000ec  00000000  00000000  00000d5c  2**2
                  CONTENTS, READONLY, DEBUGGING
  9 .debug_str    0000021e  00000000  00000000  00000e48  2**0
                  CONTENTS, READONLY, DEBUGGING
 10 .debug_ranges 00000070  00000000  00000000  00001066  2**0
                  CONTENTS, READONLY, DEBUGGING

Disassembly of section .text:

00000000 <__vectors>:
   0:	49 c0       	rjmp	.+146    	; 0x94 <__ctors_end>
   2:	00 00       	nop
   4:	4f c0       	rjmp	.+158    	; 0xa4 <__bad_interrupt>
   6:	00 00       	nop
   8:	4d c0       	rjmp	.+154    	; 0xa4 <__bad_interrupt>
   a:	00 00       	nop
   c:	4b c0       	rjmp	.+150    	; 0xa4 <__bad_interrupt>
   e:	00 00       	nop
  10:	49 c0       	rjmp	.+146    	; 0xa4 <__bad_interrupt>
  12:	00 00       	nop
  14:	47 c0       	rjmp	.+142    	; 0xa4 <__bad_interrupt>
  16:	00 00       	nop
  18:	45 c0       	rjmp	.+138    	; 0xa4 <__bad_interrupt>
  1a:	00 00       	nop
  1c:	43 c0       	rjmp	.+134    	; 0xa4 <__bad_interrupt>
  1e:	00 00       	nop
  20:	41 c0       	rjmp	.+130    	; 0xa4 <__bad_interrupt>
  22:	00 00       	nop
  24:	3f c0       	rjmp	.+126    	; 0xa4 <__bad_interrupt>
  26:	00 00       	nop
  28:	3d c0       	rjmp	.+122    	; 0xa4 <__bad_interrupt>
  2a:	00 00       	nop
  2c:	3b c0       	rjmp	.+118    	; 0xa4 <__bad_interrupt>
  2e:	00 00       	nop
  30:	39 c0       	rjmp	.+114    	; 0xa4 <__bad_interrupt>
  32:	00 00       	nop
  34:	37 c0       	rjmp	.+110    	; 0xa4 <__bad_interrupt>
  36:	00 00       	nop
  38:	35 c0       	rjmp	.+106    	; 0xa4 <__bad_interrupt>
  3a:	00 00       	nop
  3c:	33 c0       	rjmp	.+102    	; 0xa4 <__bad_interrupt>
  3e:	00 00       	nop
  40:	31 c0       	rjmp	.+98     	; 0xa4 <__bad_interrupt>
  42:	00 00       	nop
  44:	2f c0       	rjmp	.+94     	; 0xa4 <__bad_interrupt>
  46:	00 00       	nop
  48:	2d c0       	rjmp	.+90     	; 0xa4 <__bad_interrupt>
  4a:	00 00       	nop
  4c:	2b c0       	rjmp	.+86     	; 0xa4 <__bad_interrupt>
  4e:	00 00       	nop
  50:	29 c0       	rjmp	.+82     	; 0xa4 <__bad_interrupt>
  52:	00 00       	nop
  54:	27 c0       	rjmp	.+78     	; 0xa4 <__bad_interrupt>
  56:	00 00       	nop
  58:	25 c0       	rjmp	.+74     	; 0xa4 <__bad_interrupt>
  5a:	00 00       	nop
  5c:	23 c0       	rjmp	.+70     	; 0xa4 <__bad_interrupt>
  5e:	00 00       	nop
  60:	21 c0       	rjmp	.+66     	; 0xa4 <__bad_interrupt>
  62:	00 00       	nop
  64:	1f c0       	rjmp	.+62     	; 0xa4 <__bad_interrupt>
  66:	00 00       	nop
  68:	1d c0       	rjmp	.+58     	; 0xa4 <__bad_interrupt>
  6a:	00 00       	nop
  6c:	1b c0       	rjmp	.+54     	; 0xa4 <__bad_interrupt>
  6e:	00 00       	nop
  70:	19 c0       	rjmp	.+50     	; 0xa4 <__bad_interrupt>
  72:	00 00       	nop
  74:	17 c0       	rjmp	.+46     	; 0xa4 <__bad_interrupt>
  76:	00 00       	nop
  78:	15 c0       	rjmp	.+42     	; 0xa4 <__bad_interrupt>
  7a:	00 00       	nop
  7c:	13 c0       	rjmp	.+38     	; 0xa4 <__bad_interrupt>
  7e:	00 00       	nop
  80:	11 c0       	rjmp	.+34     	; 0xa4 <__bad_interrupt>
  82:	00 00       	nop
  84:	0f c0       	rjmp	.+30     	; 0xa4 <__bad_interrupt>
  86:	00 00       	nop
  88:	0d c0       	rjmp	.+26     	; 0xa4 <__bad_interrupt>
  8a:	00 00       	nop
  8c:	0b c0       	rjmp	.+22     	; 0xa4 <__bad_interrupt>
  8e:	00 00       	nop
  90:	09 c0       	rjmp	.+18     	; 0xa4 <__bad_interrupt>
	...

00000094 <__ctors_end>:
  94:	11 24       	eor	r1, r1
  96:	1f be       	out	0x3f, r1	; 63
  98:	cf ef       	ldi	r28, 0xFF	; 255
  9a:	d0 e1       	ldi	r29, 0x10	; 16
  9c:	de bf       	out	0x3e, r29	; 62
  9e:	cd bf       	out	0x3d, r28	; 61
  a0:	38 d0       	rcall	.+112    	; 0x112 <main>
  a2:	8d c0       	rjmp	.+282    	; 0x1be <_exit>

000000a4 <__bad_interrupt>:
  a4:	ad cf       	rjmp	.-166    	; 0x0 <__vectors>

000000a6 <adc_enable>:
	
}

void adc_enable(void){
	//Enables ADC, turn off before go into sleep mode
	set_bit(ADCSRA, ADEN);
  a6:	ea e7       	ldi	r30, 0x7A	; 122
  a8:	f0 e0       	ldi	r31, 0x00	; 0
  aa:	80 81       	ld	r24, Z
  ac:	80 68       	ori	r24, 0x80	; 128
  ae:	80 83       	st	Z, r24
  b0:	08 95       	ret

000000b2 <start_conv>:
}

void start_conv(void){
	set_bit(ADCSRA, ADSC);
  b2:	ea e7       	ldi	r30, 0x7A	; 122
  b4:	f0 e0       	ldi	r31, 0x00	; 0
  b6:	80 81       	ld	r24, Z
  b8:	80 64       	ori	r24, 0x40	; 64
  ba:	80 83       	st	Z, r24
  bc:	08 95       	ret

000000be <adc_init>:
#include "adc.h"


void adc_init(void){
	//Internal 2.56V voltage reference with external capacitor on AREF pin
	set_bit(ADMUX, REFS1);
  be:	ec e7       	ldi	r30, 0x7C	; 124
  c0:	f0 e0       	ldi	r31, 0x00	; 0
  c2:	80 81       	ld	r24, Z
  c4:	80 68       	ori	r24, 0x80	; 128
  c6:	80 83       	st	Z, r24
	set_bit(ADMUX, REFS0);
  c8:	80 81       	ld	r24, Z
  ca:	80 64       	ori	r24, 0x40	; 64
  cc:	80 83       	st	Z, r24
	//Single ended input on ADC0
	clear_bit(ADMUX, MUX0);
  ce:	80 81       	ld	r24, Z
  d0:	8e 7f       	andi	r24, 0xFE	; 254
  d2:	80 83       	st	Z, r24
	clear_bit(ADMUX, MUX1);
  d4:	80 81       	ld	r24, Z
  d6:	8d 7f       	andi	r24, 0xFD	; 253
  d8:	80 83       	st	Z, r24
	clear_bit(ADMUX, MUX2);
  da:	80 81       	ld	r24, Z
  dc:	8b 7f       	andi	r24, 0xFB	; 251
  de:	80 83       	st	Z, r24
	clear_bit(ADMUX, MUX3);
  e0:	80 81       	ld	r24, Z
  e2:	87 7f       	andi	r24, 0xF7	; 247
  e4:	80 83       	st	Z, r24
	clear_bit(ADMUX, MUX4);
  e6:	80 81       	ld	r24, Z
  e8:	8f 7e       	andi	r24, 0xEF	; 239
  ea:	80 83       	st	Z, r24
	
	//ADC Auto trigger Enable
	set_bit(ADCSRA, ADEN);
  ec:	ea e7       	ldi	r30, 0x7A	; 122
  ee:	f0 e0       	ldi	r31, 0x00	; 0
  f0:	80 81       	ld	r24, Z
  f2:	80 68       	ori	r24, 0x80	; 128
  f4:	80 83       	st	Z, r24
	
	//Free Running mode
	clear_bit(ADCSRB, ADTS0);
  f6:	eb e7       	ldi	r30, 0x7B	; 123
  f8:	f0 e0       	ldi	r31, 0x00	; 0
  fa:	80 81       	ld	r24, Z
  fc:	8e 7f       	andi	r24, 0xFE	; 254
  fe:	80 83       	st	Z, r24
	clear_bit(ADCSRB, ADTS1);
 100:	80 81       	ld	r24, Z
 102:	8d 7f       	andi	r24, 0xFD	; 253
 104:	80 83       	st	Z, r24
	clear_bit(ADCSRB, ADTS2);
 106:	80 81       	ld	r24, Z
 108:	8b 7f       	andi	r24, 0xFB	; 251
 10a:	80 83       	st	Z, r24
	
	adc_enable();
 10c:	cc df       	rcall	.-104    	; 0xa6 <adc_enable>
	start_conv();
 10e:	d1 cf       	rjmp	.-94     	; 0xb2 <start_conv>
 110:	08 95       	ret

00000112 <main>:

//int max_allowed = nax_value(30km/t,15A)

int main(void)
{
    pwm_init();
 112:	11 d0       	rcall	.+34     	; 0x136 <pwm_init>
	adc_init();
 114:	d4 df       	rcall	.-88     	; 0xbe <adc_init>
		
	
		set_pwm_A(pwm_value);
		*/
		
		a_val = ADC;
 116:	08 e7       	ldi	r16, 0x78	; 120
 118:	10 e0       	ldi	r17, 0x00	; 0
 11a:	f8 01       	movw	r30, r16
 11c:	c0 81       	ld	r28, Z
 11e:	d1 81       	ldd	r29, Z+1	; 0x01
	#else
		//round up by default
		__ticks_dc = (uint32_t)(ceil(fabs(__tmp)));
	#endif

	__builtin_avr_delay_cycles(__ticks_dc);
 120:	83 ec       	ldi	r24, 0xC3	; 195
 122:	99 e0       	ldi	r25, 0x09	; 9
 124:	01 97       	sbiw	r24, 0x01	; 1
 126:	f1 f7       	brne	.-4      	; 0x124 <main+0x12>
 128:	00 c0       	rjmp	.+0      	; 0x12a <main+0x18>
 12a:	00 00       	nop
		_delay_ms(10);
		//printf(a_val);
		set_pwm_A(a_val);
 12c:	8c 2f       	mov	r24, r28
 12e:	3b d0       	rcall	.+118    	; 0x1a6 <set_pwm_A>
		set_pwm_B(a_val);
 130:	8c 2f       	mov	r24, r28
 132:	3f d0       	rcall	.+126    	; 0x1b2 <set_pwm_B>
		
	}
 134:	f2 cf       	rjmp	.-28     	; 0x11a <main+0x8>

00000136 <pwm_init>:

void pwm_A_off(void){
	OCR3A = 0x00;
}
void pwm_B_off(void){
	OCR3B = 0x00;
 136:	73 98       	cbi	0x0e, 3	; 14
 138:	6b 9a       	sbi	0x0d, 3	; 13
 13a:	74 98       	cbi	0x0e, 4	; 14
 13c:	6c 9a       	sbi	0x0d, 4	; 13
 13e:	a1 e9       	ldi	r26, 0x91	; 145
 140:	b0 e0       	ldi	r27, 0x00	; 0
 142:	8c 91       	ld	r24, X
 144:	80 61       	ori	r24, 0x10	; 16
 146:	8c 93       	st	X, r24
 148:	8c 91       	ld	r24, X
 14a:	88 60       	ori	r24, 0x08	; 8
 14c:	8c 93       	st	X, r24
 14e:	e0 e9       	ldi	r30, 0x90	; 144
 150:	f0 e0       	ldi	r31, 0x00	; 0
 152:	80 81       	ld	r24, Z
 154:	82 60       	ori	r24, 0x02	; 2
 156:	80 83       	st	Z, r24
 158:	80 81       	ld	r24, Z
 15a:	8e 7f       	andi	r24, 0xFE	; 254
 15c:	80 83       	st	Z, r24
 15e:	80 81       	ld	r24, Z
 160:	80 68       	ori	r24, 0x80	; 128
 162:	80 83       	st	Z, r24
 164:	80 81       	ld	r24, Z
 166:	8f 7b       	andi	r24, 0xBF	; 191
 168:	80 83       	st	Z, r24
 16a:	80 81       	ld	r24, Z
 16c:	80 62       	ori	r24, 0x20	; 32
 16e:	80 83       	st	Z, r24
 170:	80 81       	ld	r24, Z
 172:	8f 7e       	andi	r24, 0xEF	; 239
 174:	80 83       	st	Z, r24
 176:	8c 91       	ld	r24, X
 178:	84 60       	ori	r24, 0x04	; 4
 17a:	8c 93       	st	X, r24
 17c:	8c 91       	ld	r24, X
 17e:	8d 7f       	andi	r24, 0xFD	; 253
 180:	8c 93       	st	X, r24
 182:	8c 91       	ld	r24, X
 184:	8e 7f       	andi	r24, 0xFE	; 254
 186:	8c 93       	st	X, r24
 188:	8f ef       	ldi	r24, 0xFF	; 255
 18a:	90 e0       	ldi	r25, 0x00	; 0
 18c:	90 93 97 00 	sts	0x0097, r25
 190:	80 93 96 00 	sts	0x0096, r24
 194:	10 92 99 00 	sts	0x0099, r1
 198:	10 92 98 00 	sts	0x0098, r1
 19c:	10 92 9b 00 	sts	0x009B, r1
 1a0:	10 92 9a 00 	sts	0x009A, r1
 1a4:	08 95       	ret

000001a6 <set_pwm_A>:
}

void set_pwm_A(uint8_t duty){
	//range from 0x00 to ICR3 value(see init)
	OCR3A = duty;
 1a6:	90 e0       	ldi	r25, 0x00	; 0
 1a8:	90 93 99 00 	sts	0x0099, r25
 1ac:	80 93 98 00 	sts	0x0098, r24
 1b0:	08 95       	ret

000001b2 <set_pwm_B>:
}

void set_pwm_B(uint8_t duty){
	//range from 0x00 to ICR3 value(see init)
	OCR3B = duty;
 1b2:	90 e0       	ldi	r25, 0x00	; 0
 1b4:	90 93 9b 00 	sts	0x009B, r25
 1b8:	80 93 9a 00 	sts	0x009A, r24
 1bc:	08 95       	ret

000001be <_exit>:
 1be:	f8 94       	cli

000001c0 <__stop_program>:
 1c0:	ff cf       	rjmp	.-2      	; 0x1c0 <__stop_program>
